(dp0
S'per_epoch_ptimes'
p1
(lp2
F151.21203994750977
aF146.7234718799591
aF132.60544419288635
aF143.60013389587402
aF126.1567440032959
aF122.67291712760925
aF127.46459722518921
aF126.17344188690186
aF131.26245093345642
aF119.62684798240662
aF134.6290888786316
aF125.02739405632019
aF126.89881706237793
aF143.17541408538818
aF125.9265489578247
aF118.9469621181488
aF144.179673910141
aF124.09324407577515
aF134.40992403030396
aF154.3195459842682
aF122.58073592185974
aF118.21497178077698
aF116.39906787872314
aF120.91972184181213
aF126.2658178806305
aF120.72281312942505
aF122.81356310844421
aF146.8508288860321
aF139.96937894821167
aF143.46615600585938
aF117.24612522125244
aF112.97984504699707
aF112.3474850654602
aF117.58718991279602
aF120.21464490890503
aF119.16928696632385
aF130.83541798591614
aF118.46255302429199
aF117.61002206802368
aF134.3920350074768
aF124.3289361000061
aF130.7016031742096
aF126.8317711353302
aF159.0287890434265
aF134.80765390396118
aF149.99269104003906
aF136.14939212799072
aF115.3786129951477
aF120.00118112564087
aF119.39959120750427
aF110.13898205757141
aF108.0114688873291
aF109.1201388835907
aF106.82481002807617
aF108.83068013191223
aF118.7834460735321
aF109.83012008666992
aF106.11935496330261
aF107.23697209358215
aF106.63865494728088
aF106.74668288230896
aF106.87896203994751
aF143.33267498016357
aF108.55985689163208
aF103.86180186271667
aF103.87136602401733
aF103.2661509513855
aF104.28269481658936
aF104.03848910331726
aF104.586590051651
aF106.0255959033966
aF104.50927996635437
aF104.67323088645935
aF104.75559282302856
aF104.89872908592224
aF110.08022212982178
aF109.97529220581055
aF110.84828877449036
aF110.04400396347046
aF110.19311094284058
aF110.49570989608765
aF111.08795094490051
aF110.79064106941223
aF110.80833578109741
aF110.86575293540955
aF110.79751801490784
aF115.31612300872803
aF9917.256827116013
aF101.75730800628662
aF108.18755602836609
aF110.1910879611969
aF104.69816398620605
aF99.64129495620728
aF98.36038088798523
aF99.81654477119446
aF100.3313570022583
aF100.85138607025146
aF106.65920400619507
aF110.32936501502991
aF104.19254994392395
asS'D_losses'
p3
(lp4
cnumpy.core.multiarray
scalar
p5
(cnumpy
dtype
p6
(S'f4'
p7
I0
I1
tp8
Rp9
(I3
S'<'
p10
NNNI-1
I-1
I0
tp11
bS'\x8d\xf3\x90?'
p12
tp13
Rp14
ag5
(g9
S'\xc2k\x99?'
p15
tp16
Rp17
ag5
(g9
S'\xc3C\xa1?'
p18
tp19
Rp20
ag5
(g9
S'\xceM\xa2?'
p21
tp22
Rp23
ag5
(g9
S'[d\x8d?'
p24
tp25
Rp26
ag5
(g9
S'\x86~\xac>'
p27
tp28
Rp29
ag5
(g9
S'\xf9\x04\xa3\xbc'
p30
tp31
Rp32
ag5
(g9
S'\x03\x05\xa3\xbc'
p33
tp34
Rp35
ag5
(g9
S'\x10\x05\xa3\xbc'
p36
tp37
Rp38
ag5
(g9
S'\x1f\x05\xa3\xbc'
p39
tp40
Rp41
ag5
(g9
S'1\x05\xa3\xbc'
p42
tp43
Rp44
ag5
(g9
S'H\x05\xa3\xbc'
p45
tp46
Rp47
ag5
(g9
S'b\x05\xa3\xbc'
p48
tp49
Rp50
ag5
(g9
S'\x7f\x05\xa3\xbc'
p51
tp52
Rp53
ag5
(g9
S'\x9d\x05\xa3\xbc'
p54
tp55
Rp56
ag5
(g9
S'\xbd\x05\xa3\xbc'
p57
tp58
Rp59
ag5
(g9
S'\xde\x05\xa3\xbc'
p60
tp61
Rp62
ag5
(g9
S'\xfc\x05\xa3\xbc'
p63
tp64
Rp65
ag5
(g9
S'\x18\x06\xa3\xbc'
p66
tp67
Rp68
ag5
(g9
S'4\x06\xa3\xbc'
p69
tp70
Rp71
ag5
(g9
S'J\x06\xa3\xbc'
p72
tp73
Rp74
ag5
(g9
S']\x06\xa3\xbc'
p75
tp76
Rp77
ag5
(g9
S'n\x06\xa3\xbc'
p78
tp79
Rp80
ag5
(g9
S'}\x06\xa3\xbc'
p81
tp82
Rp83
ag5
(g9
S'\x87\x06\xa3\xbc'
p84
tp85
Rp86
ag5
(g9
S'\x8f\x06\xa3\xbc'
p87
tp88
Rp89
ag5
(g9
S'\x97\x06\xa3\xbc'
p90
tp91
Rp92
ag5
(g9
S'\x9c\x06\xa3\xbc'
p93
tp94
Rp95
ag5
(g9
S'\xa1\x06\xa3\xbc'
p96
tp97
Rp98
ag5
(g9
S'\xa4\x06\xa3\xbc'
p99
tp100
Rp101
ag5
(g9
S'\xa8\x06\xa3\xbc'
p102
tp103
Rp104
ag5
(g9
S'\xa9\x06\xa3\xbc'
p105
tp106
Rp107
ag5
(g9
S'\xaa\x06\xa3\xbc'
p108
tp109
Rp110
ag5
(g9
S'\xab\x06\xa3\xbc'
p111
tp112
Rp113
ag5
(g9
S'\xac\x06\xa3\xbc'
p114
tp115
Rp116
ag5
(g9
S'\xad\x06\xa3\xbc'
p117
tp118
Rp119
ag5
(g9
S'\xae\x06\xa3\xbc'
p120
tp121
Rp122
ag5
(g9
S'\xae\x06\xa3\xbc'
p123
tp124
Rp125
ag5
(g9
S'\xae\x06\xa3\xbc'
p126
tp127
Rp128
ag5
(g9
S'\xaf\x06\xa3\xbc'
p129
tp130
Rp131
ag5
(g9
S'\xaf\x06\xa3\xbc'
p132
tp133
Rp134
ag5
(g9
S'\xaf\x06\xa3\xbc'
p135
tp136
Rp137
ag5
(g9
S'\xaf\x06\xa3\xbc'
p138
tp139
Rp140
ag5
(g9
S'\xaf\x06\xa3\xbc'
p141
tp142
Rp143
ag5
(g9
S'\xaf\x06\xa3\xbc'
p144
tp145
Rp146
ag5
(g9
S'\xaf\x06\xa3\xbc'
p147
tp148
Rp149
ag5
(g9
S'\xaf\x06\xa3\xbc'
p150
tp151
Rp152
ag5
(g9
S'\xaf\x06\xa3\xbc'
p153
tp154
Rp155
ag5
(g9
S'\xaf\x06\xa3\xbc'
p156
tp157
Rp158
ag5
(g9
S'\xaf\x06\xa3\xbc'
p159
tp160
Rp161
ag5
(g9
S'\xaf\x06\xa3\xbc'
p162
tp163
Rp164
ag5
(g9
S'\xaf\x06\xa3\xbc'
p165
tp166
Rp167
ag5
(g9
S'\xaf\x06\xa3\xbc'
p168
tp169
Rp170
ag5
(g9
S'\xaf\x06\xa3\xbc'
p171
tp172
Rp173
ag5
(g9
S'\xaf\x06\xa3\xbc'
p174
tp175
Rp176
ag5
(g9
S'\xaf\x06\xa3\xbc'
p177
tp178
Rp179
ag5
(g9
S'\xaf\x06\xa3\xbc'
p180
tp181
Rp182
ag5
(g9
S'\xaf\x06\xa3\xbc'
p183
tp184
Rp185
ag5
(g9
S'\xaf\x06\xa3\xbc'
p186
tp187
Rp188
ag5
(g9
S'\xaf\x06\xa3\xbc'
p189
tp190
Rp191
ag5
(g9
S'\xaf\x06\xa3\xbc'
p192
tp193
Rp194
ag5
(g9
S'\xaf\x06\xa3\xbc'
p195
tp196
Rp197
ag5
(g9
S'\xaf\x06\xa3\xbc'
p198
tp199
Rp200
ag5
(g9
S'\xaf\x06\xa3\xbc'
p201
tp202
Rp203
ag5
(g9
S'\xaf\x06\xa3\xbc'
p204
tp205
Rp206
ag5
(g9
S'\xaf\x06\xa3\xbc'
p207
tp208
Rp209
ag5
(g9
S'\xaf\x06\xa3\xbc'
p210
tp211
Rp212
ag5
(g9
S'\xaf\x06\xa3\xbc'
p213
tp214
Rp215
ag5
(g9
S'\xaf\x06\xa3\xbc'
p216
tp217
Rp218
ag5
(g9
S'\xaf\x06\xa3\xbc'
p219
tp220
Rp221
ag5
(g9
S'\xaf\x06\xa3\xbc'
p222
tp223
Rp224
ag5
(g9
S'\xaf\x06\xa3\xbc'
p225
tp226
Rp227
ag5
(g9
S'\xaf\x06\xa3\xbc'
p228
tp229
Rp230
ag5
(g9
S'\xaf\x06\xa3\xbc'
p231
tp232
Rp233
ag5
(g9
S'\xaf\x06\xa3\xbc'
p234
tp235
Rp236
ag5
(g9
S'\xaf\x06\xa3\xbc'
p237
tp238
Rp239
ag5
(g9
S'\xaf\x06\xa3\xbc'
p240
tp241
Rp242
ag5
(g9
S'\xaf\x06\xa3\xbc'
p243
tp244
Rp245
ag5
(g9
S'\xaf\x06\xa3\xbc'
p246
tp247
Rp248
ag5
(g9
S'\xaf\x06\xa3\xbc'
p249
tp250
Rp251
ag5
(g9
S'\xaf\x06\xa3\xbc'
p252
tp253
Rp254
ag5
(g9
S'\xaf\x06\xa3\xbc'
p255
tp256
Rp257
ag5
(g9
S'\xaf\x06\xa3\xbc'
p258
tp259
Rp260
ag5
(g9
S'\xaf\x06\xa3\xbc'
p261
tp262
Rp263
ag5
(g9
S'\xaf\x06\xa3\xbc'
p264
tp265
Rp266
ag5
(g9
S'\xaf\x06\xa3\xbc'
p267
tp268
Rp269
ag5
(g9
S'\xaf\x06\xa3\xbc'
p270
tp271
Rp272
ag5
(g9
S'\xaf\x06\xa3\xbc'
p273
tp274
Rp275
ag5
(g9
S'\xaf\x06\xa3\xbc'
p276
tp277
Rp278
ag5
(g9
S'\xaf\x06\xa3\xbc'
p279
tp280
Rp281
ag5
(g9
S'\xaf\x06\xa3\xbc'
p282
tp283
Rp284
ag5
(g9
S'\xaf\x06\xa3\xbc'
p285
tp286
Rp287
ag5
(g9
S'\xaf\x06\xa3\xbc'
p288
tp289
Rp290
ag5
(g9
S'\xaf\x06\xa3\xbc'
p291
tp292
Rp293
ag5
(g9
S'\xaf\x06\xa3\xbc'
p294
tp295
Rp296
ag5
(g9
S'\xaf\x06\xa3\xbc'
p297
tp298
Rp299
ag5
(g9
S'\xaf\x06\xa3\xbc'
p300
tp301
Rp302
ag5
(g9
S'\xaf\x06\xa3\xbc'
p303
tp304
Rp305
ag5
(g9
S'\xaf\x06\xa3\xbc'
p306
tp307
Rp308
ag5
(g9
S'\xaf\x06\xa3\xbc'
p309
tp310
Rp311
asS'total_ptime'
p312
(lp313
F22003.471929073334
asS'G_losses'
p314
(lp315
g5
(g9
S'\xcf\xe2\x99?'
p316
tp317
Rp318
ag5
(g9
S'\x94\xb7\x81?'
p319
tp320
Rp321
ag5
(g9
S'\xc2F\x89?'
p322
tp323
Rp324
ag5
(g9
S'\xfa\x8c\xd4?'
p325
tp326
Rp327
ag5
(g9
S'\xadx\r@'
p328
tp329
Rp330
ag5
(g9
S'\x06\xa1\x85@'
p331
tp332
Rp333
ag5
(g9
S'\x8e]\x93@'
p334
tp335
Rp336
ag5
(g9
S'\x8e]\x93@'
p337
tp338
Rp339
ag5
(g9
S'\x8e]\x93@'
p340
tp341
Rp342
ag5
(g9
S'\x8e]\x93@'
p343
tp344
Rp345
ag5
(g9
S'\x8e]\x93@'
p346
tp347
Rp348
ag5
(g9
S'\x8e]\x93@'
p349
tp350
Rp351
ag5
(g9
S'\x8e]\x93@'
p352
tp353
Rp354
ag5
(g9
S'\x8e]\x93@'
p355
tp356
Rp357
ag5
(g9
S'\x8e]\x93@'
p358
tp359
Rp360
ag5
(g9
S'\x8e]\x93@'
p361
tp362
Rp363
ag5
(g9
S'\x8e]\x93@'
p364
tp365
Rp366
ag5
(g9
S'\x8e]\x93@'
p367
tp368
Rp369
ag5
(g9
S'\x8e]\x93@'
p370
tp371
Rp372
ag5
(g9
S'\x8e]\x93@'
p373
tp374
Rp375
ag5
(g9
S'\x8e]\x93@'
p376
tp377
Rp378
ag5
(g9
S'\x8e]\x93@'
p379
tp380
Rp381
ag5
(g9
S'\x8e]\x93@'
p382
tp383
Rp384
ag5
(g9
S'\x8e]\x93@'
p385
tp386
Rp387
ag5
(g9
S'\x8e]\x93@'
p388
tp389
Rp390
ag5
(g9
S'\x8e]\x93@'
p391
tp392
Rp393
ag5
(g9
S'\x8e]\x93@'
p394
tp395
Rp396
ag5
(g9
S'\x8e]\x93@'
p397
tp398
Rp399
ag5
(g9
S'\x8e]\x93@'
p400
tp401
Rp402
ag5
(g9
S'\x8e]\x93@'
p403
tp404
Rp405
ag5
(g9
S'\x8e]\x93@'
p406
tp407
Rp408
ag5
(g9
S'\x8e]\x93@'
p409
tp410
Rp411
ag5
(g9
S'\x8e]\x93@'
p412
tp413
Rp414
ag5
(g9
S'\x8e]\x93@'
p415
tp416
Rp417
ag5
(g9
S'\x8e]\x93@'
p418
tp419
Rp420
ag5
(g9
S'\x8e]\x93@'
p421
tp422
Rp423
ag5
(g9
S'\x8e]\x93@'
p424
tp425
Rp426
ag5
(g9
S'\x8e]\x93@'
p427
tp428
Rp429
ag5
(g9
S'\x8e]\x93@'
p430
tp431
Rp432
ag5
(g9
S'\x8e]\x93@'
p433
tp434
Rp435
ag5
(g9
S'\x8e]\x93@'
p436
tp437
Rp438
ag5
(g9
S'\x8e]\x93@'
p439
tp440
Rp441
ag5
(g9
S'\x8e]\x93@'
p442
tp443
Rp444
ag5
(g9
S'\x8e]\x93@'
p445
tp446
Rp447
ag5
(g9
S'\x8e]\x93@'
p448
tp449
Rp450
ag5
(g9
S'\x8e]\x93@'
p451
tp452
Rp453
ag5
(g9
S'\x8e]\x93@'
p454
tp455
Rp456
ag5
(g9
S'\x8e]\x93@'
p457
tp458
Rp459
ag5
(g9
S'\x8e]\x93@'
p460
tp461
Rp462
ag5
(g9
S'\x8e]\x93@'
p463
tp464
Rp465
ag5
(g9
S'\x8e]\x93@'
p466
tp467
Rp468
ag5
(g9
S'\x8e]\x93@'
p469
tp470
Rp471
ag5
(g9
S'\x8e]\x93@'
p472
tp473
Rp474
ag5
(g9
S'\x8e]\x93@'
p475
tp476
Rp477
ag5
(g9
S'\x8e]\x93@'
p478
tp479
Rp480
ag5
(g9
S'\x8e]\x93@'
p481
tp482
Rp483
ag5
(g9
S'\x8e]\x93@'
p484
tp485
Rp486
ag5
(g9
S'\x8e]\x93@'
p487
tp488
Rp489
ag5
(g9
S'\x8e]\x93@'
p490
tp491
Rp492
ag5
(g9
S'\x8e]\x93@'
p493
tp494
Rp495
ag5
(g9
S'\x8e]\x93@'
p496
tp497
Rp498
ag5
(g9
S'\x8e]\x93@'
p499
tp500
Rp501
ag5
(g9
S'\x8e]\x93@'
p502
tp503
Rp504
ag5
(g9
S'\x8e]\x93@'
p505
tp506
Rp507
ag5
(g9
S'\x8e]\x93@'
p508
tp509
Rp510
ag5
(g9
S'\x8e]\x93@'
p511
tp512
Rp513
ag5
(g9
S'\x8e]\x93@'
p514
tp515
Rp516
ag5
(g9
S'\x8e]\x93@'
p517
tp518
Rp519
ag5
(g9
S'\x8e]\x93@'
p520
tp521
Rp522
ag5
(g9
S'\x8e]\x93@'
p523
tp524
Rp525
ag5
(g9
S'\x8e]\x93@'
p526
tp527
Rp528
ag5
(g9
S'\x8e]\x93@'
p529
tp530
Rp531
ag5
(g9
S'\x8e]\x93@'
p532
tp533
Rp534
ag5
(g9
S'\x8e]\x93@'
p535
tp536
Rp537
ag5
(g9
S'\x8e]\x93@'
p538
tp539
Rp540
ag5
(g9
S'\x8e]\x93@'
p541
tp542
Rp543
ag5
(g9
S'\x8e]\x93@'
p544
tp545
Rp546
ag5
(g9
S'\x8e]\x93@'
p547
tp548
Rp549
ag5
(g9
S'\x8e]\x93@'
p550
tp551
Rp552
ag5
(g9
S'\x8e]\x93@'
p553
tp554
Rp555
ag5
(g9
S'\x8e]\x93@'
p556
tp557
Rp558
ag5
(g9
S'\x8e]\x93@'
p559
tp560
Rp561
ag5
(g9
S'\x8e]\x93@'
p562
tp563
Rp564
ag5
(g9
S'\x8e]\x93@'
p565
tp566
Rp567
ag5
(g9
S'\x8e]\x93@'
p568
tp569
Rp570
ag5
(g9
S'\x8e]\x93@'
p571
tp572
Rp573
ag5
(g9
S'\x8e]\x93@'
p574
tp575
Rp576
ag5
(g9
S'\x8e]\x93@'
p577
tp578
Rp579
ag5
(g9
S'\x8e]\x93@'
p580
tp581
Rp582
ag5
(g9
S'\x8e]\x93@'
p583
tp584
Rp585
ag5
(g9
S'\x8e]\x93@'
p586
tp587
Rp588
ag5
(g9
S'\x8e]\x93@'
p589
tp590
Rp591
ag5
(g9
S'\x8e]\x93@'
p592
tp593
Rp594
ag5
(g9
S'\x8e]\x93@'
p595
tp596
Rp597
ag5
(g9
S'\x8e]\x93@'
p598
tp599
Rp600
ag5
(g9
S'\x8e]\x93@'
p601
tp602
Rp603
ag5
(g9
S'\x8e]\x93@'
p604
tp605
Rp606
ag5
(g9
S'\x8e]\x93@'
p607
tp608
Rp609
ag5
(g9
S'\x8e]\x93@'
p610
tp611
Rp612
ag5
(g9
S'\x8e]\x93@'
p613
tp614
Rp615
as.